target datalayout = "e-m:e-p270:32:32-p271:32:32-p272:64:64-i64:64-i128:128-f80:128-n8:16:32:64-S128"
target triple = "x86_64-pc-linux-gnu"

%union.pthread_mutex_t = type { %struct.__pthread_mutex_s }
%struct.__pthread_mutex_s = type { i32, i32, i32, i32, i32, i16, i16, %struct.__pthread_internal_list }
%struct.__pthread_internal_list = type { ptr, ptr }
%struct.slurmdb_stats_rec_t = type { ptr, ptr, ptr, i64, ptr }
%struct.slurmdb_rollup_stats_t = type { ptr, [3 x i16], [3 x i64], [3 x i64], [3 x i64], [3 x i64] }

@rpc_mutex = dso_local global %union.pthread_mutex_t zeroinitializer, align 8
@.str.22 = private unnamed_addr constant [29 x i8] c"%s: pthread_mutex_lock(): %m\00", align 1
@rpc_stats = dso_local global %struct.slurmdb_stats_rec_t zeroinitializer, align 8
@.str.23 = private unnamed_addr constant [31 x i8] c"%s: pthread_mutex_unlock(): %m\00", align 1
@__func__.handle_rollup_stats = private unnamed_addr constant [20 x i8] c"handle_rollup_stats\00", align 1

; Function Attrs: nounwind uwtable
define dso_local void @handle_rollup_stats(ptr noundef %0, i64 noundef %1, i32 noundef %2) #0 {
  %4 = alloca ptr, align 8
  %5 = alloca i64, align 8
  %6 = alloca i32, align 4
  %7 = alloca ptr, align 8
  %8 = alloca ptr, align 8
  %9 = alloca ptr, align 8
  %10 = alloca i32, align 4
  %11 = alloca i32, align 4
  %12 = alloca i32, align 4
  %13 = alloca i32, align 4
  %14 = alloca i32, align 4
  store ptr %0, ptr %4, align 8
  store i64 %1, ptr %5, align 8
  store i32 %2, ptr %6, align 4
  call void @llvm.lifetime.start.p0(i64 8, ptr %7) #10
  call void @llvm.lifetime.start.p0(i64 8, ptr %8) #10
  call void @llvm.lifetime.start.p0(i64 8, ptr %9) #10
  br label %15

15:                                               ; preds = %3
  call void @llvm.lifetime.start.p0(i64 4, ptr %10) #10
  %16 = call i32 @pthread_mutex_lock(ptr noundef @rpc_mutex) #10
  store i32 %16, ptr %10, align 4
  %17 = load i32, ptr %10, align 4
  %18 = icmp ne i32 %17, 0
  br i1 %18, label %19, label %22

19:                                               ; preds = %15
  %20 = load i32, ptr %10, align 4
  %21 = call ptr @__errno_location() #13
  store i32 %20, ptr %21, align 4
  call void (ptr, ...) @fatal_abort(ptr noundef @.str.22, ptr noundef @__func__.handle_rollup_stats) #12
  unreachable

22:                                               ; preds = %15
  call void @llvm.lifetime.end.p0(i64 4, ptr %10) #10
  br label %23

23:                                               ; preds = %22
  br label %24

24:                                               ; preds = %23
  %25 = load ptr, ptr @rpc_stats, align 8
  store ptr %25, ptr %8, align 8
  %26 = load ptr, ptr %8, align 8
  %27 = getelementptr inbounds nuw %struct.slurmdb_rollup_stats_t, ptr %26, i32 0, i32 1
  %28 = load i32, ptr %6, align 4
  %29 = sext i32 %28 to i64
  %30 = getelementptr inbounds [3 x i16], ptr %27, i64 0, i64 %29
  %31 = load i16, ptr %30, align 2
  %32 = add i16 %31, 1
  store i16 %32, ptr %30, align 2
  %33 = load i64, ptr %5, align 8
  %34 = load ptr, ptr %8, align 8
  %35 = getelementptr inbounds nuw %struct.slurmdb_rollup_stats_t, ptr %34, i32 0, i32 5
  %36 = load i32, ptr %6, align 4
  %37 = sext i32 %36 to i64
  %38 = getelementptr inbounds [3 x i64], ptr %35, i64 0, i64 %37
  %39 = load i64, ptr %38, align 8
  %40 = add i64 %39, %33
  store i64 %40, ptr %38, align 8
  %41 = load i64, ptr %5, align 8
  %42 = load ptr, ptr %8, align 8
  %43 = getelementptr inbounds nuw %struct.slurmdb_rollup_stats_t, ptr %42, i32 0, i32 3
  %44 = load i32, ptr %6, align 4
  %45 = sext i32 %44 to i64
  %46 = getelementptr inbounds [3 x i64], ptr %43, i64 0, i64 %45
  store i64 %41, ptr %46, align 8
  %47 = load ptr, ptr %8, align 8
  %48 = getelementptr inbounds nuw %struct.slurmdb_rollup_stats_t, ptr %47, i32 0, i32 4
  %49 = load i32, ptr %6, align 4
  %50 = sext i32 %49 to i64
  %51 = getelementptr inbounds [3 x i64], ptr %48, i64 0, i64 %50
  %52 = load i64, ptr %51, align 8
  %53 = load i64, ptr %5, align 8
  %54 = icmp ugt i64 %52, %53
  br i1 %54, label %55, label %62

55:                                               ; preds = %24
  %56 = load ptr, ptr %8, align 8
  %57 = getelementptr inbounds nuw %struct.slurmdb_rollup_stats_t, ptr %56, i32 0, i32 4
  %58 = load i32, ptr %6, align 4
  %59 = sext i32 %58 to i64
  %60 = getelementptr inbounds [3 x i64], ptr %57, i64 0, i64 %59
  %61 = load i64, ptr %60, align 8
  br label %64

62:                                               ; preds = %24
  %63 = load i64, ptr %5, align 8
  br label %64

64:                                               ; preds = %62, %55
  %65 = phi i64 [ %61, %55 ], [ %63, %62 ]
  %66 = load ptr, ptr %8, align 8
  %67 = getelementptr inbounds nuw %struct.slurmdb_rollup_stats_t, ptr %66, i32 0, i32 4
  %68 = load i32, ptr %6, align 4
  %69 = sext i32 %68 to i64
  %70 = getelementptr inbounds [3 x i64], ptr %67, i64 0, i64 %69
  store i64 %65, ptr %70, align 8
  %71 = call i64 @time(ptr noundef null) #10
  %72 = load ptr, ptr %8, align 8
  %73 = getelementptr inbounds nuw %struct.slurmdb_rollup_stats_t, ptr %72, i32 0, i32 2
  %74 = load i32, ptr %6, align 4
  %75 = sext i32 %74 to i64
  %76 = getelementptr inbounds [3 x i64], ptr %73, i64 0, i64 %75
  store i64 %71, ptr %76, align 8
  %77 = load ptr, ptr %4, align 8
  %78 = icmp ne ptr %77, null
  br i1 %78, label %79, label %83

79:                                               ; preds = %64
  %80 = load ptr, ptr %4, align 8
  %81 = call i32 @list_count(ptr noundef %80)
  %82 = icmp ne i32 %81, 0
  br i1 %82, label %94, label %83

83:                                               ; preds = %79, %64
  br label %84

84:                                               ; preds = %83
  call void @llvm.lifetime.start.p0(i64 4, ptr %11) #10
  %85 = call i32 @pthread_mutex_unlock(ptr noundef @rpc_mutex) #10
  store i32 %85, ptr %11, align 4
  %86 = load i32, ptr %11, align 4
  %87 = icmp ne i32 %86, 0
  br i1 %87, label %88, label %91

88:                                               ; preds = %84
  %89 = load i32, ptr %11, align 4
  %90 = call ptr @__errno_location() #13
  store i32 %89, ptr %90, align 4
  call void (ptr, ...) @fatal_abort(ptr noundef @.str.23, ptr noundef @__func__.handle_rollup_stats) #12
  unreachable

91:                                               ; preds = %84
  call void @llvm.lifetime.end.p0(i64 4, ptr %11) #10
  br label %92

92:                                               ; preds = %91
  br label %93

93:                                               ; preds = %92
  store i32 1, ptr %12, align 4
  br label %218

94:                                               ; preds = %79
  %95 = load ptr, ptr %4, align 8
  %96 = call ptr @list_iterator_create(ptr noundef %95)
  store ptr %96, ptr %7, align 8
  br label %97

97:                                               ; preds = %205, %106, %94
  %98 = load ptr, ptr %7, align 8
  %99 = call ptr @list_next(ptr noundef %98)
  store ptr %99, ptr %8, align 8
  %100 = icmp ne ptr %99, null
  br i1 %100, label %101, label %206

101:                                              ; preds = %97
  %102 = load ptr, ptr getelementptr inbounds nuw (%struct.slurmdb_stats_rec_t, ptr @rpc_stats, i32 0, i32 1), align 8
  %103 = load ptr, ptr %8, align 8
  %104 = call ptr @list_find_first(ptr noundef %102, ptr noundef @_find_rollup_stats_in_list, ptr noundef %103)
  store ptr %104, ptr %9, align 8
  %105 = icmp ne ptr %104, null
  br i1 %105, label %111, label %106

106:                                              ; preds = %101
  %107 = load ptr, ptr getelementptr inbounds nuw (%struct.slurmdb_stats_rec_t, ptr @rpc_stats, i32 0, i32 1), align 8
  %108 = load ptr, ptr %8, align 8
  call void @list_append(ptr noundef %107, ptr noundef %108)
  %109 = load ptr, ptr %7, align 8
  %110 = call ptr @list_remove(ptr noundef %109)
  br label %97, !llvm.loop !18

111:                                              ; preds = %101
  call void @llvm.lifetime.start.p0(i64 4, ptr %13) #10
  store i32 0, ptr %13, align 4
  br label %112

112:                                              ; preds = %202, %111
  %113 = load i32, ptr %13, align 4
  %114 = icmp slt i32 %113, 3
  br i1 %114, label %116, label %115

115:                                              ; preds = %112
  store i32 8, ptr %12, align 4
  call void @llvm.lifetime.end.p0(i64 4, ptr %13) #10
  br label %205

116:                                              ; preds = %112
  %117 = load ptr, ptr %8, align 8
  %118 = getelementptr inbounds nuw %struct.slurmdb_rollup_stats_t, ptr %117, i32 0, i32 5
  %119 = load i32, ptr %13, align 4
  %120 = sext i32 %119 to i64
  %121 = getelementptr inbounds [3 x i64], ptr %118, i64 0, i64 %120
  %122 = load i64, ptr %121, align 8
  %123 = icmp eq i64 %122, 0
  br i1 %123, label %124, label %125

124:                                              ; preds = %116
  br label %202

125:                                              ; preds = %116
  %126 = load ptr, ptr %9, align 8
  %127 = getelementptr inbounds nuw %struct.slurmdb_rollup_stats_t, ptr %126, i32 0, i32 1
  %128 = load i32, ptr %13, align 4
  %129 = sext i32 %128 to i64
  %130 = getelementptr inbounds [3 x i16], ptr %127, i64 0, i64 %129
  %131 = load i16, ptr %130, align 2
  %132 = add i16 %131, 1
  store i16 %132, ptr %130, align 2
  %133 = load ptr, ptr %8, align 8
  %134 = getelementptr inbounds nuw %struct.slurmdb_rollup_stats_t, ptr %133, i32 0, i32 5
  %135 = load i32, ptr %13, align 4
  %136 = sext i32 %135 to i64
  %137 = getelementptr inbounds [3 x i64], ptr %134, i64 0, i64 %136
  %138 = load i64, ptr %137, align 8
  %139 = load ptr, ptr %9, align 8
  %140 = getelementptr inbounds nuw %struct.slurmdb_rollup_stats_t, ptr %139, i32 0, i32 5
  %141 = load i32, ptr %13, align 4
  %142 = sext i32 %141 to i64
  %143 = getelementptr inbounds [3 x i64], ptr %140, i64 0, i64 %142
  %144 = load i64, ptr %143, align 8
  %145 = add i64 %144, %138
  store i64 %145, ptr %143, align 8
  %146 = load ptr, ptr %8, align 8
  %147 = getelementptr inbounds nuw %struct.slurmdb_rollup_stats_t, ptr %146, i32 0, i32 5
  %148 = load i32, ptr %13, align 4
  %149 = sext i32 %148 to i64
  %150 = getelementptr inbounds [3 x i64], ptr %147, i64 0, i64 %149
  %151 = load i64, ptr %150, align 8
  %152 = load ptr, ptr %9, align 8
  %153 = getelementptr inbounds nuw %struct.slurmdb_rollup_stats_t, ptr %152, i32 0, i32 3
  %154 = load i32, ptr %13, align 4
  %155 = sext i32 %154 to i64
  %156 = getelementptr inbounds [3 x i64], ptr %153, i64 0, i64 %155
  store i64 %151, ptr %156, align 8
  %157 = load ptr, ptr %9, align 8
  %158 = getelementptr inbounds nuw %struct.slurmdb_rollup_stats_t, ptr %157, i32 0, i32 4
  %159 = load i32, ptr %13, align 4
  %160 = sext i32 %159 to i64
  %161 = getelementptr inbounds [3 x i64], ptr %158, i64 0, i64 %160
  %162 = load i64, ptr %161, align 8
  %163 = load ptr, ptr %8, align 8
  %164 = getelementptr inbounds nuw %struct.slurmdb_rollup_stats_t, ptr %163, i32 0, i32 5
  %165 = load i32, ptr %13, align 4
  %166 = sext i32 %165 to i64
  %167 = getelementptr inbounds [3 x i64], ptr %164, i64 0, i64 %166
  %168 = load i64, ptr %167, align 8
  %169 = icmp ugt i64 %162, %168
  br i1 %169, label %170, label %177

170:                                              ; preds = %125
  %171 = load ptr, ptr %9, align 8
  %172 = getelementptr inbounds nuw %struct.slurmdb_rollup_stats_t, ptr %171, i32 0, i32 4
  %173 = load i32, ptr %13, align 4
  %174 = sext i32 %173 to i64
  %175 = getelementptr inbounds [3 x i64], ptr %172, i64 0, i64 %174
  %176 = load i64, ptr %175, align 8
  br label %184

177:                                              ; preds = %125
  %178 = load ptr, ptr %8, align 8
  %179 = getelementptr inbounds nuw %struct.slurmdb_rollup_stats_t, ptr %178, i32 0, i32 5
  %180 = load i32, ptr %13, align 4
  %181 = sext i32 %180 to i64
  %182 = getelementptr inbounds [3 x i64], ptr %179, i64 0, i64 %181
  %183 = load i64, ptr %182, align 8
  br label %184

184:                                              ; preds = %177, %170
  %185 = phi i64 [ %176, %170 ], [ %183, %177 ]
  %186 = load ptr, ptr %9, align 8
  %187 = getelementptr inbounds nuw %struct.slurmdb_rollup_stats_t, ptr %186, i32 0, i32 4
  %188 = load i32, ptr %13, align 4
  %189 = sext i32 %188 to i64
  %190 = getelementptr inbounds [3 x i64], ptr %187, i64 0, i64 %189
  store i64 %185, ptr %190, align 8
  %191 = load ptr, ptr %8, align 8
  %192 = getelementptr inbounds nuw %struct.slurmdb_rollup_stats_t, ptr %191, i32 0, i32 2
  %193 = load i32, ptr %13, align 4
  %194 = sext i32 %193 to i64
  %195 = getelementptr inbounds [3 x i64], ptr %192, i64 0, i64 %194
  %196 = load i64, ptr %195, align 8
  %197 = load ptr, ptr %9, align 8
  %198 = getelementptr inbounds nuw %struct.slurmdb_rollup_stats_t, ptr %197, i32 0, i32 2
  %199 = load i32, ptr %13, align 4
  %200 = sext i32 %199 to i64
  %201 = getelementptr inbounds [3 x i64], ptr %198, i64 0, i64 %200
  store i64 %196, ptr %201, align 8
  br label %202

202:                                              ; preds = %184, %124
  %203 = load i32, ptr %13, align 4
  %204 = add nsw i32 %203, 1
  store i32 %204, ptr %13, align 4
  br label %112, !llvm.loop !19

205:                                              ; preds = %115
  br label %97, !llvm.loop !18

206:                                              ; preds = %97
  %207 = load ptr, ptr %7, align 8
  call void @list_iterator_destroy(ptr noundef %207)
  br label %208

208:                                              ; preds = %206
  call void @llvm.lifetime.start.p0(i64 4, ptr %14) #10
  %209 = call i32 @pthread_mutex_unlock(ptr noundef @rpc_mutex) #10
  store i32 %209, ptr %14, align 4
  %210 = load i32, ptr %14, align 4
  %211 = icmp ne i32 %210, 0
  br i1 %211, label %212, label %215

212:                                              ; preds = %208
  %213 = load i32, ptr %14, align 4
  %214 = call ptr @__errno_location() #13
  store i32 %213, ptr %214, align 4
  call void (ptr, ...) @fatal_abort(ptr noundef @.str.23, ptr noundef @__func__.handle_rollup_stats) #12
  unreachable

215:                                              ; preds = %208
  call void @llvm.lifetime.end.p0(i64 4, ptr %14) #10
  br label %216

216:                                              ; preds = %215
  br label %217

217:                                              ; preds = %216
  store i32 0, ptr %12, align 4
  br label %218

218:                                              ; preds = %217, %93
  call void @llvm.lifetime.end.p0(i64 8, ptr %9) #10
  call void @llvm.lifetime.end.p0(i64 8, ptr %8) #10
  call void @llvm.lifetime.end.p0(i64 8, ptr %7) #10
  %219 = load i32, ptr %12, align 4
  switch i32 %219, label %221 [
    i32 0, label %220
    i32 1, label %220
  ]

220:                                              ; preds = %218, %218
  ret void

221:                                              ; preds = %218
  unreachable
}