; Function Attrs: nounwind uwtable
define dso_local void @handle_rollup_stats(ptr noundef %0, i64 noundef %1, i32 noundef %2) local_unnamed_addr #0 {
  %4 = tail call i32 @pthread_mutex_lock(ptr noundef nonnull @rpc_mutex) #14
  %.not = icmp eq i32 %4, 0
  br i1 %.not, label %7, label %5

5:                                                ; preds = %3
  %6 = tail call ptr @__errno_location() #18
  store i32 %4, ptr %6, align 4
  tail call void (ptr, ...) @fatal_abort(ptr noundef nonnull @.str.22, ptr noundef nonnull @__func__.handle_rollup_stats) #16
  unreachable

7:                                                ; preds = %3
  %8 = load ptr, ptr @rpc_stats, align 8
  %9 = getelementptr inbounds nuw i8, ptr %8, i64 8
  %10 = sext i32 %2 to i64
  %11 = getelementptr inbounds [3 x i16], ptr %9, i64 0, i64 %10
  %12 = load i16, ptr %11, align 2
  %13 = add i16 %12, 1
  store i16 %13, ptr %11, align 2
  %14 = getelementptr inbounds nuw i8, ptr %8, i64 88
  %15 = getelementptr inbounds [3 x i64], ptr %14, i64 0, i64 %10
  %16 = load i64, ptr %15, align 8
  %17 = add i64 %16, %1
  store i64 %17, ptr %15, align 8
  %18 = getelementptr inbounds nuw i8, ptr %8, i64 40
  %19 = getelementptr inbounds [3 x i64], ptr %18, i64 0, i64 %10
  store i64 %1, ptr %19, align 8
  %20 = getelementptr inbounds nuw i8, ptr %8, i64 64
  %21 = getelementptr inbounds [3 x i64], ptr %20, i64 0, i64 %10
  %22 = load i64, ptr %21, align 8
  %. = tail call i64 @llvm.umax.i64(i64 %22, i64 %1)
  store i64 %., ptr %21, align 8
  %23 = tail call i64 @time(ptr noundef null) #14
  %24 = getelementptr inbounds nuw i8, ptr %8, i64 16
  %25 = getelementptr inbounds [3 x i64], ptr %24, i64 0, i64 %10
  store i64 %23, ptr %25, align 8
  %.not69 = icmp eq ptr %0, null
  br i1 %.not69, label %28, label %26

26:                                               ; preds = %7
  %27 = tail call i32 @list_count(ptr noundef nonnull %0) #14
  %.not70 = icmp eq i32 %27, 0
  br i1 %.not70, label %28, label %32

28:                                               ; preds = %7, %26
  %29 = tail call i32 @pthread_mutex_unlock(ptr noundef nonnull @rpc_mutex) #14
  %.not71 = icmp eq i32 %29, 0
  br i1 %.not71, label %72, label %30

30:                                               ; preds = %28
  %31 = tail call ptr @__errno_location() #18
  store i32 %29, ptr %31, align 4
  tail call void (ptr, ...) @fatal_abort(ptr noundef nonnull @.str.23, ptr noundef nonnull @__func__.handle_rollup_stats) #16
  unreachable

32:                                               ; preds = %26
  %33 = tail call ptr @list_iterator_create(ptr noundef nonnull %0) #14
  %34 = tail call ptr @list_next(ptr noundef %33) #14
  %.not7277 = icmp eq ptr %34, null
  br i1 %.not7277, label %._crit_edge, label %.lr.ph

.lr.ph:                                           ; preds = %32, %.backedge
  %35 = phi ptr [ %48, %.backedge ], [ %34, %32 ]
  %36 = load ptr, ptr getelementptr inbounds nuw (i8, ptr @rpc_stats, i64 8), align 8
  %37 = tail call ptr @list_find_first(ptr noundef %36, ptr noundef nonnull @_find_rollup_stats_in_list, ptr noundef nonnull %35) #14
  %.not74 = icmp eq ptr %37, null
  br i1 %.not74, label %45, label %.preheader

.preheader:                                       ; preds = %.lr.ph
  %38 = getelementptr inbounds nuw i8, ptr %35, i64 88
  %39 = getelementptr inbounds nuw i8, ptr %37, i64 8
  %40 = getelementptr inbounds nuw i8, ptr %37, i64 88
  %41 = getelementptr inbounds nuw i8, ptr %37, i64 40
  %42 = getelementptr inbounds nuw i8, ptr %37, i64 64
  %43 = getelementptr inbounds nuw i8, ptr %35, i64 16
  %44 = getelementptr inbounds nuw i8, ptr %37, i64 16
  br label %49

45:                                               ; preds = %.lr.ph
  %46 = load ptr, ptr getelementptr inbounds nuw (i8, ptr @rpc_stats, i64 8), align 8
  tail call void @list_append(ptr noundef %46, ptr noundef nonnull %35) #14
  %47 = tail call ptr @list_remove(ptr noundef %33) #14
  br label %.backedge

.backedge:                                        ; preds = %68, %45
  %48 = tail call ptr @list_next(ptr noundef %33) #14
  %.not72 = icmp eq ptr %48, null
  br i1 %.not72, label %._crit_edge, label %.lr.ph, !llvm.loop !18

49:                                               ; preds = %.preheader, %68
  %indvars.iv = phi i64 [ 0, %.preheader ], [ %indvars.iv.next, %68 ]
  %50 = getelementptr inbounds nuw [3 x i64], ptr %38, i64 0, i64 %indvars.iv
  %51 = load i64, ptr %50, align 8
  %52 = icmp eq i64 %51, 0
  br i1 %52, label %68, label %53

53:                                               ; preds = %49
  %54 = getelementptr inbounds nuw [3 x i16], ptr %39, i64 0, i64 %indvars.iv
  %55 = load i16, ptr %54, align 2
  %56 = add i16 %55, 1
  store i16 %56, ptr %54, align 2
  %57 = load i64, ptr %50, align 8
  %58 = getelementptr inbounds nuw [3 x i64], ptr %40, i64 0, i64 %indvars.iv
  %59 = load i64, ptr %58, align 8
  %60 = add i64 %59, %57
  store i64 %60, ptr %58, align 8
  %61 = load i64, ptr %50, align 8
  %62 = getelementptr inbounds nuw [3 x i64], ptr %41, i64 0, i64 %indvars.iv
  store i64 %61, ptr %62, align 8
  %63 = getelementptr inbounds nuw [3 x i64], ptr %42, i64 0, i64 %indvars.iv
  %64 = load i64, ptr %63, align 8
  %.75 = tail call i64 @llvm.umax.i64(i64 %64, i64 %61)
  store i64 %.75, ptr %63, align 8
  %65 = getelementptr inbounds nuw [3 x i64], ptr %43, i64 0, i64 %indvars.iv
  %66 = load i64, ptr %65, align 8
  %67 = getelementptr inbounds nuw [3 x i64], ptr %44, i64 0, i64 %indvars.iv
  store i64 %66, ptr %67, align 8
  br label %68

68:                                               ; preds = %49, %53
  %indvars.iv.next = add nuw nsw i64 %indvars.iv, 1
  %exitcond.not = icmp eq i64 %indvars.iv.next, 3
  br i1 %exitcond.not, label %.backedge, label %49, !llvm.loop !19

._crit_edge:                                      ; preds = %.backedge, %32
  tail call void @list_iterator_destroy(ptr noundef %33) #14
  %69 = tail call i32 @pthread_mutex_unlock(ptr noundef nonnull @rpc_mutex) #14
  %.not73 = icmp eq i32 %69, 0
  br i1 %.not73, label %72, label %70

70:                                               ; preds = %._crit_edge
  %71 = tail call ptr @__errno_location() #18
  store i32 %69, ptr %71, align 4
  tail call void (ptr, ...) @fatal_abort(ptr noundef nonnull @.str.23, ptr noundef nonnull @__func__.handle_rollup_stats) #16
  unreachable

72:                                               ; preds = %._crit_edge, %28
  ret void
}